target datalayout = "e-m:e-p270:32:32-p271:32:32-p272:64:64-i64:64-i128:128-f80:128-n8:16:32:64-S128"
target triple = "x86_64-pc-linux-gnu"

@.str.17 = private unnamed_addr constant [2 x i8] c",\00", align 1
@.str.85 = private unnamed_addr constant [2 x i8] c"[\00", align 1
@.str.96 = private unnamed_addr constant [5 x i8] c"NULL\00", align 1
@.str.97 = private unnamed_addr constant [2 x i8] c"]\00", align 1

; Function Attrs: nounwind uwtable
define dso_local ptr @ldbRedisProtocolToHuman_MultiBulk(ptr noundef %0, ptr noundef %1) #0 {
  %3 = alloca ptr, align 8
  %4 = alloca ptr, align 8
  %5 = alloca ptr, align 8
  %6 = alloca ptr, align 8
  %7 = alloca i64, align 8
  %8 = alloca i32, align 4
  %9 = alloca i32, align 4
  store ptr %0, ptr %4, align 8, !tbaa !100
  store ptr %1, ptr %5, align 8, !tbaa !16
  call void @llvm.lifetime.start.p0(i64 8, ptr %6) #14
  %10 = load ptr, ptr %5, align 8, !tbaa !16
  %11 = getelementptr inbounds i8, ptr %10, i64 1
  %12 = call ptr @strchr(ptr noundef %11, i32 noundef 13) #13
  store ptr %12, ptr %6, align 8, !tbaa !16
  call void @llvm.lifetime.start.p0(i64 8, ptr %7) #14
  call void @llvm.lifetime.start.p0(i64 4, ptr %8) #14
  store i32 0, ptr %8, align 4, !tbaa !19
  %13 = load ptr, ptr %5, align 8, !tbaa !16
  %14 = getelementptr inbounds i8, ptr %13, i64 1
  %15 = load ptr, ptr %6, align 8, !tbaa !16
  %16 = load ptr, ptr %5, align 8, !tbaa !16
  %17 = ptrtoint ptr %15 to i64
  %18 = ptrtoint ptr %16 to i64
  %19 = sub i64 %17, %18
  %20 = sub nsw i64 %19, 1
  %21 = call i32 @string2ll(ptr noundef %14, i64 noundef %20, ptr noundef %7)
  %22 = load ptr, ptr %6, align 8, !tbaa !16
  %23 = getelementptr inbounds i8, ptr %22, i64 2
  store ptr %23, ptr %6, align 8, !tbaa !16
  %24 = load i64, ptr %7, align 8, !tbaa !143
  %25 = icmp eq i64 %24, -1
  br i1 %25, label %26, label %32

26:                                               ; preds = %2
  %27 = load ptr, ptr %4, align 8, !tbaa !100
  %28 = load ptr, ptr %27, align 8, !tbaa !16
  %29 = call ptr @sdscatlen(ptr noundef %28, ptr noundef @.str.96, i64 noundef 4)
  %30 = load ptr, ptr %4, align 8, !tbaa !100
  store ptr %29, ptr %30, align 8, !tbaa !16
  %31 = load ptr, ptr %6, align 8, !tbaa !16
  store ptr %31, ptr %3, align 8
  store i32 1, ptr %9, align 4
  br label %66

32:                                               ; preds = %2
  %33 = load ptr, ptr %4, align 8, !tbaa !100
  %34 = load ptr, ptr %33, align 8, !tbaa !16
  %35 = call ptr @sdscatlen(ptr noundef %34, ptr noundef @.str.85, i64 noundef 1)
  %36 = load ptr, ptr %4, align 8, !tbaa !100
  store ptr %35, ptr %36, align 8, !tbaa !16
  store i32 0, ptr %8, align 4, !tbaa !19
  br label %37

37:                                               ; preds = %57, %32
  %38 = load i32, ptr %8, align 4, !tbaa !19
  %39 = sext i32 %38 to i64
  %40 = load i64, ptr %7, align 8, !tbaa !143
  %41 = icmp slt i64 %39, %40
  br i1 %41, label %42, label %60

42:                                               ; preds = %37
  %43 = load ptr, ptr %4, align 8, !tbaa !100
  %44 = load ptr, ptr %6, align 8, !tbaa !16
  %45 = call ptr @ldbRedisProtocolToHuman(ptr noundef %43, ptr noundef %44)
  store ptr %45, ptr %6, align 8, !tbaa !16
  %46 = load i32, ptr %8, align 4, !tbaa !19
  %47 = sext i32 %46 to i64
  %48 = load i64, ptr %7, align 8, !tbaa !143
  %49 = sub nsw i64 %48, 1
  %50 = icmp ne i64 %47, %49
  br i1 %50, label %51, label %56

51:                                               ; preds = %42
  %52 = load ptr, ptr %4, align 8, !tbaa !100
  %53 = load ptr, ptr %52, align 8, !tbaa !16
  %54 = call ptr @sdscatlen(ptr noundef %53, ptr noundef @.str.17, i64 noundef 1)
  %55 = load ptr, ptr %4, align 8, !tbaa !100
  store ptr %54, ptr %55, align 8, !tbaa !16
  br label %56

56:                                               ; preds = %51, %42
  br label %57

57:                                               ; preds = %56
  %58 = load i32, ptr %8, align 4, !tbaa !19
  %59 = add nsw i32 %58, 1
  store i32 %59, ptr %8, align 4, !tbaa !19
  br label %37, !llvm.loop !175

60:                                               ; preds = %37
  %61 = load ptr, ptr %4, align 8, !tbaa !100
  %62 = load ptr, ptr %61, align 8, !tbaa !16
  %63 = call ptr @sdscatlen(ptr noundef %62, ptr noundef @.str.97, i64 noundef 1)
  %64 = load ptr, ptr %4, align 8, !tbaa !100
  store ptr %63, ptr %64, align 8, !tbaa !16
  %65 = load ptr, ptr %6, align 8, !tbaa !16
  store ptr %65, ptr %3, align 8
  store i32 1, ptr %9, align 4
  br label %66

66:                                               ; preds = %60, %26
  call void @llvm.lifetime.end.p0(i64 4, ptr %8) #14
  call void @llvm.lifetime.end.p0(i64 8, ptr %7) #14
  call void @llvm.lifetime.end.p0(i64 8, ptr %6) #14
  %67 = load ptr, ptr %3, align 8
  ret ptr %67
}