; Function Attrs: nounwind uwtable
define dso_local ptr @ldbRedisProtocolToHuman_MultiBulk(ptr noundef captures(none) %0, ptr noundef %1) local_unnamed_addr #0 {
  %3 = alloca i64, align 8
  %4 = getelementptr inbounds nuw i8, ptr %1, i64 1
  %5 = tail call ptr @strchr(ptr noundef nonnull dereferenceable(1) %4, i32 noundef 13) #18
  call void @llvm.lifetime.start.p0(i64 8, ptr nonnull %3) #19
  %6 = ptrtoint ptr %5 to i64
  %7 = ptrtoint ptr %1 to i64
  %8 = xor i64 %7, -1
  %9 = add i64 %6, %8
  %10 = call i32 @string2ll(ptr noundef nonnull %4, i64 noundef %9, ptr noundef nonnull %3) #19
  %11 = getelementptr inbounds nuw i8, ptr %5, i64 2
  %12 = load i64, ptr %3, align 8, !tbaa !131
  %13 = icmp eq i64 %12, -1
  %14 = load ptr, ptr %0, align 8, !tbaa !92
  br i1 %13, label %15, label %17

15:                                               ; preds = %2
  %16 = call ptr @sdscatlen(ptr noundef %14, ptr noundef nonnull @.str.96, i64 noundef 4) #19
  br label %32

17:                                               ; preds = %2
  %18 = call ptr @sdscatlen(ptr noundef %14, ptr noundef nonnull @.str.85, i64 noundef 1) #19
  store ptr %18, ptr %0, align 8, !tbaa !92
  %19 = load i64, ptr %3, align 8, !tbaa !131
  %20 = icmp sgt i64 %19, 0
  br i1 %20, label %.lr.ph, label %._crit_edge

.lr.ph:                                           ; preds = %17, %27
  %indvars.iv = phi i64 [ %indvars.iv.next, %27 ], [ 0, %17 ]
  %.02023 = phi ptr [ %21, %27 ], [ %11, %17 ]
  %21 = call ptr @ldbRedisProtocolToHuman(ptr noundef nonnull %0, ptr noundef %.02023)
  %22 = load i64, ptr %3, align 8, !tbaa !131
  %23 = add nsw i64 %22, -1
  %.not = icmp eq i64 %23, %indvars.iv
  br i1 %.not, label %27, label %24

24:                                               ; preds = %.lr.ph
  %25 = load ptr, ptr %0, align 8, !tbaa !92
  %26 = call ptr @sdscatlen(ptr noundef %25, ptr noundef nonnull @.str.17, i64 noundef 1) #19
  store ptr %26, ptr %0, align 8, !tbaa !92
  %.pre = load i64, ptr %3, align 8, !tbaa !131
  br label %27

27:                                               ; preds = %.lr.ph, %24
  %28 = phi i64 [ %22, %.lr.ph ], [ %.pre, %24 ]
  %indvars.iv.next = add nuw nsw i64 %indvars.iv, 1
  %29 = icmp sgt i64 %28, %indvars.iv.next
  br i1 %29, label %.lr.ph, label %._crit_edge.loopexit, !llvm.loop !158

._crit_edge.loopexit:                             ; preds = %27
  %.pre26 = load ptr, ptr %0, align 8, !tbaa !92
  br label %._crit_edge

._crit_edge:                                      ; preds = %._crit_edge.loopexit, %17
  %30 = phi ptr [ %18, %17 ], [ %.pre26, %._crit_edge.loopexit ]
  %.020.lcssa = phi ptr [ %11, %17 ], [ %21, %._crit_edge.loopexit ]
  %31 = call ptr @sdscatlen(ptr noundef %30, ptr noundef nonnull @.str.97, i64 noundef 1) #19
  br label %32

32:                                               ; preds = %._crit_edge, %15
  %storemerge = phi ptr [ %31, %._crit_edge ], [ %16, %15 ]
  %.021 = phi ptr [ %.020.lcssa, %._crit_edge ], [ %11, %15 ]
  store ptr %storemerge, ptr %0, align 8, !tbaa !92
  call void @llvm.lifetime.end.p0(i64 8, ptr nonnull %3) #19
  ret ptr %.021
}